; Function Attrs: mustprogress nounwind uwtable
define dso_local noundef zeroext i1 @_ZN4llvm14CombinerHelper15matchConstantOpERKNS_14MachineOperandEl(ptr nocapture noundef nonnull readonly align 8 dereferenceable(72) %0, ptr nocapture noundef nonnull readonly align 8 dereferenceable(32) %1, i64 noundef %2) local_unnamed_addr #0 align 2 {
  %4 = alloca %"class.std::optional.382", align 8
  %5 = load i32, ptr %1, align 8
  %6 = and i32 %5, 255
  %7 = icmp eq i32 %6, 0
  br i1 %7, label %8, label %_ZNSt8optionalIN4llvm5APIntEED2Ev.exit

8:                                                ; preds = %3
  %9 = getelementptr inbounds nuw i8, ptr %0, i64 8
  %10 = load ptr, ptr %9, align 8
  %11 = getelementptr inbounds nuw i8, ptr %1, i64 4
  %12 = load i32, ptr %11, align 4
  %13 = tail call noundef ptr @_ZNK4llvm19MachineRegisterInfo10getVRegDefENS_8RegisterE(ptr noundef nonnull align 8 dereferenceable(512) %10, i32 %12) #27
  %14 = load ptr, ptr %9, align 8
  call void @_ZN4llvm31isConstantOrConstantSplatVectorERNS_12MachineInstrERKNS_19MachineRegisterInfoE(ptr dead_on_unwind nonnull writable sret(%"class.std::optional.382") align 8 %4, ptr noundef nonnull align 8 dereferenceable(70) %13, ptr noundef nonnull align 8 dereferenceable(512) %14) #27
  %15 = getelementptr inbounds nuw i8, ptr %4, i64 16
  %16 = load i8, ptr %15, align 8
  %17 = trunc i8 %16 to i1
  br i1 %17, label %18, label %_ZNSt8optionalIN4llvm5APIntEED2Ev.exit

18:                                               ; preds = %8
  %19 = getelementptr inbounds nuw i8, ptr %4, i64 8
  %20 = load i32, ptr %19, align 8
  %21 = icmp ult i32 %20, 65
  br i1 %21, label %22, label %30

22:                                               ; preds = %18
  %23 = load i64, ptr %4, align 8
  %24 = icmp eq i32 %20, 0
  %25 = sub nuw nsw i32 64, %20
  %26 = zext nneg i32 %25 to i64
  %27 = shl i64 %23, %26
  %28 = ashr exact i64 %27, %26
  %.0.i.i = select i1 %24, i64 0, i64 %28
  %29 = icmp eq i64 %.0.i.i, %2
  br label %_ZNSt8optionalIN4llvm5APIntEED2Ev.exit

30:                                               ; preds = %18
  store i8 0, ptr %15, align 8
  %31 = load ptr, ptr %4, align 8
  %32 = icmp eq ptr %31, null
  br i1 %32, label %_ZNSt8optionalIN4llvm5APIntEED2Ev.exit, label %33

33:                                               ; preds = %30
  call void @_ZdaPv(ptr noundef nonnull %31) #31
  br label %_ZNSt8optionalIN4llvm5APIntEED2Ev.exit

_ZNSt8optionalIN4llvm5APIntEED2Ev.exit:           ; preds = %22, %33, %30, %8, %3
  %.0 = phi i1 [ false, %3 ], [ %29, %22 ], [ false, %30 ], [ false, %33 ], [ false, %8 ]
  ret i1 %.0
}